target datalayout = "e-m:e-p270:32:32-p271:32:32-p272:64:64-i64:64-i128:128-f80:128-n8:16:32:64-S128"
target triple = "x86_64-pc-linux-gnu"

%"class.std::vector.11" = type { %"struct.std::_Vector_base.12" }
%"struct.std::_Vector_base.12" = type { %"struct.std::_Vector_base<double, std::allocator<double>>::_Vector_impl" }
%"struct.std::_Vector_base<double, std::allocator<double>>::_Vector_impl" = type { %"struct.std::_Vector_base<double, std::allocator<double>>::_Vector_impl_data" }
%"struct.std::_Vector_base<double, std::allocator<double>>::_Vector_impl_data" = type { ptr, ptr, ptr }
%"class.OpenColorIO_v2_5dev::L2LBaseRenderer" = type { %"class.OpenColorIO_v2_5dev::LogOpCPU", float, %"class.std::vector.11", %"class.std::vector.11", %"class.std::vector.11" }
%"class.OpenColorIO_v2_5dev::LogOpCPU" = type { %"class.OpenColorIO_v2_5dev::OpCPU" }
%"class.OpenColorIO_v2_5dev::OpCPU" = type { ptr }
%"class.OpenColorIO_v2_5dev::CameraL2LBaseRenderer" = type { %"class.OpenColorIO_v2_5dev::L2LBaseRenderer", [3 x float], [3 x float], [3 x float], float }
%"class.OpenColorIO_v2_5dev::CameraLin2LogRenderer" = type <{ %"class.OpenColorIO_v2_5dev::CameraL2LBaseRenderer", [3 x float], [3 x float], [3 x float], [3 x float], [3 x float], [4 x i8] }>

@_ZZNK19OpenColorIO_v2_5dev21CameraLin2LogRenderer5applyEPKvPvlE8minValue = internal constant float 0x3810000000000000, align 4

; Function Attrs: mustprogress nounwind uwtable
define linkonce_odr noundef float @_ZSt4log2f(float noundef %0) #6 comdat {
  %2 = alloca float, align 4
  store float %0, ptr %2, align 4, !tbaa !14
  %3 = load float, ptr %2, align 4, !tbaa !14
  %4 = call float @log2f(float noundef %3) #3, !tbaa !141
  ret float %4
}

; Function Attrs: inlinehint mustprogress nounwind uwtable
define linkonce_odr noundef nonnull align 4 dereferenceable(4) ptr @_ZSt3maxIfERKT_S2_S2_(ptr noundef nonnull align 4 dereferenceable(4) %0, ptr noundef nonnull align 4 dereferenceable(4) %1) #9 comdat {
  %3 = alloca ptr, align 8
  %4 = alloca ptr, align 8
  %5 = alloca ptr, align 8
  store ptr %0, ptr %4, align 8, !tbaa !47
  store ptr %1, ptr %5, align 8, !tbaa !47
  %6 = load ptr, ptr %4, align 8, !tbaa !47
  %7 = load float, ptr %6, align 4, !tbaa !14
  %8 = load ptr, ptr %5, align 8, !tbaa !47
  %9 = load float, ptr %8, align 4, !tbaa !14
  %10 = fcmp olt float %7, %9
  br i1 %10, label %11, label %13

11:                                               ; preds = %2
  %12 = load ptr, ptr %5, align 8, !tbaa !47
  store ptr %12, ptr %3, align 8
  br label %15

13:                                               ; preds = %2
  %14 = load ptr, ptr %4, align 8, !tbaa !47
  store ptr %14, ptr %3, align 8
  br label %15

15:                                               ; preds = %13, %11
  %16 = load ptr, ptr %3, align 8
  ret ptr %16
}

; Function Attrs: mustprogress uwtable
define hidden void @_ZNK19OpenColorIO_v2_5dev21CameraLin2LogRenderer5applyEPKvPvl(ptr noundef nonnull align 8 dereferenceable(188) %0, ptr noundef %1, ptr noundef %2, i64 noundef %3) unnamed_addr #4 align 2 {
  %5 = alloca ptr, align 8
  %6 = alloca ptr, align 8
  %7 = alloca ptr, align 8
  %8 = alloca i64, align 8
  %9 = alloca ptr, align 8
  %10 = alloca ptr, align 8
  %11 = alloca i64, align 8
  %12 = alloca i32, align 4
  %13 = alloca float, align 4
  %14 = alloca i32, align 4
  store ptr %0, ptr %5, align 8, !tbaa !165
  store ptr %1, ptr %6, align 8, !tbaa !124
  store ptr %2, ptr %7, align 8, !tbaa !124
  store i64 %3, ptr %8, align 8, !tbaa !115
  %15 = load ptr, ptr %5, align 8
  call void @llvm.lifetime.start.p0(i64 8, ptr %9) #3
  %16 = load ptr, ptr %6, align 8, !tbaa !124
  store ptr %16, ptr %9, align 8, !tbaa !47
  call void @llvm.lifetime.start.p0(i64 8, ptr %10) #3
  %17 = load ptr, ptr %7, align 8, !tbaa !124
  store ptr %17, ptr %10, align 8, !tbaa !47
  call void @llvm.lifetime.start.p0(i64 8, ptr %11) #3
  store i64 0, ptr %11, align 8, !tbaa !115
  br label %18

18:                                               ; preds = %137, %4
  %19 = load i64, ptr %11, align 8, !tbaa !115
  %20 = load i64, ptr %8, align 8, !tbaa !115
  %21 = icmp slt i64 %19, %20
  br i1 %21, label %23, label %22

22:                                               ; preds = %18
  store i32 2, ptr %12, align 4
  call void @llvm.lifetime.end.p0(i64 8, ptr %11) #3
  br label %140

23:                                               ; preds = %18
  call void @llvm.lifetime.start.p0(i64 4, ptr %13) #3
  %24 = load ptr, ptr %9, align 8, !tbaa !47
  %25 = getelementptr inbounds float, ptr %24, i64 3
  %26 = load float, ptr %25, align 4, !tbaa !14
  store float %26, ptr %13, align 4, !tbaa !14
  call void @llvm.lifetime.start.p0(i64 4, ptr %14) #3
  store i32 0, ptr %14, align 4, !tbaa !141
  br label %27

27:                                               ; preds = %126, %23
  %28 = load i32, ptr %14, align 4, !tbaa !141
  %29 = icmp slt i32 %28, 3
  br i1 %29, label %31, label %30

30:                                               ; preds = %27
  store i32 5, ptr %12, align 4
  call void @llvm.lifetime.end.p0(i64 4, ptr %14) #3
  br label %129

31:                                               ; preds = %27
  %32 = load ptr, ptr %9, align 8, !tbaa !47
  %33 = load i32, ptr %14, align 4, !tbaa !141
  %34 = sext i32 %33 to i64
  %35 = getelementptr inbounds float, ptr %32, i64 %34
  %36 = load float, ptr %35, align 4, !tbaa !14
  %37 = getelementptr inbounds nuw %"class.OpenColorIO_v2_5dev::CameraLin2LogRenderer", ptr %15, i32 0, i32 5
  %38 = load i32, ptr %14, align 4, !tbaa !141
  %39 = sext i32 %38 to i64
  %40 = getelementptr inbounds [3 x float], ptr %37, i64 0, i64 %39
  %41 = load float, ptr %40, align 4, !tbaa !14
  %42 = fcmp olt float %36, %41
  br i1 %42, label %43, label %64

43:                                               ; preds = %31
  %44 = getelementptr inbounds nuw %"class.OpenColorIO_v2_5dev::CameraL2LBaseRenderer", ptr %15, i32 0, i32 2
  %45 = load i32, ptr %14, align 4, !tbaa !141
  %46 = sext i32 %45 to i64
  %47 = getelementptr inbounds [3 x float], ptr %44, i64 0, i64 %46
  %48 = load float, ptr %47, align 4, !tbaa !14
  %49 = load ptr, ptr %9, align 8, !tbaa !47
  %50 = load i32, ptr %14, align 4, !tbaa !141
  %51 = sext i32 %50 to i64
  %52 = getelementptr inbounds float, ptr %49, i64 %51
  %53 = load float, ptr %52, align 4, !tbaa !14
  %54 = getelementptr inbounds nuw %"class.OpenColorIO_v2_5dev::CameraL2LBaseRenderer", ptr %15, i32 0, i32 3
  %55 = load i32, ptr %14, align 4, !tbaa !141
  %56 = sext i32 %55 to i64
  %57 = getelementptr inbounds [3 x float], ptr %54, i64 0, i64 %56
  %58 = load float, ptr %57, align 4, !tbaa !14
  %59 = call float @llvm.fmuladd.f32(float %48, float %53, float %58)
  %60 = load ptr, ptr %10, align 8, !tbaa !47
  %61 = load i32, ptr %14, align 4, !tbaa !141
  %62 = sext i32 %61 to i64
  %63 = getelementptr inbounds float, ptr %60, i64 %62
  store float %59, ptr %63, align 4, !tbaa !14
  br label %125

64:                                               ; preds = %31
  %65 = load ptr, ptr %9, align 8, !tbaa !47
  %66 = load i32, ptr %14, align 4, !tbaa !141
  %67 = sext i32 %66 to i64
  %68 = getelementptr inbounds float, ptr %65, i64 %67
  %69 = load float, ptr %68, align 4, !tbaa !14
  %70 = getelementptr inbounds nuw %"class.OpenColorIO_v2_5dev::CameraLin2LogRenderer", ptr %15, i32 0, i32 1
  %71 = load i32, ptr %14, align 4, !tbaa !141
  %72 = sext i32 %71 to i64
  %73 = getelementptr inbounds [3 x float], ptr %70, i64 0, i64 %72
  %74 = load float, ptr %73, align 4, !tbaa !14
  %75 = getelementptr inbounds nuw %"class.OpenColorIO_v2_5dev::CameraLin2LogRenderer", ptr %15, i32 0, i32 2
  %76 = load i32, ptr %14, align 4, !tbaa !141
  %77 = sext i32 %76 to i64
  %78 = getelementptr inbounds [3 x float], ptr %75, i64 0, i64 %77
  %79 = load float, ptr %78, align 4, !tbaa !14
  %80 = call float @llvm.fmuladd.f32(float %69, float %74, float %79)
  %81 = load ptr, ptr %10, align 8, !tbaa !47
  %82 = load i32, ptr %14, align 4, !tbaa !141
  %83 = sext i32 %82 to i64
  %84 = getelementptr inbounds float, ptr %81, i64 %83
  store float %80, ptr %84, align 4, !tbaa !14
  %85 = load ptr, ptr %10, align 8, !tbaa !47
  %86 = load i32, ptr %14, align 4, !tbaa !141
  %87 = sext i32 %86 to i64
  %88 = getelementptr inbounds float, ptr %85, i64 %87
  %89 = call noundef nonnull align 4 dereferenceable(4) ptr @_ZSt3maxIfERKT_S2_S2_(ptr noundef nonnull align 4 dereferenceable(4) @_ZZNK19OpenColorIO_v2_5dev21CameraLin2LogRenderer5applyEPKvPvlE8minValue, ptr noundef nonnull align 4 dereferenceable(4) %88)
  %90 = load float, ptr %89, align 4, !tbaa !14
  %91 = load ptr, ptr %10, align 8, !tbaa !47
  %92 = load i32, ptr %14, align 4, !tbaa !141
  %93 = sext i32 %92 to i64
  %94 = getelementptr inbounds float, ptr %91, i64 %93
  store float %90, ptr %94, align 4, !tbaa !14
  %95 = load ptr, ptr %10, align 8, !tbaa !47
  %96 = load i32, ptr %14, align 4, !tbaa !141
  %97 = sext i32 %96 to i64
  %98 = getelementptr inbounds float, ptr %95, i64 %97
  %99 = load float, ptr %98, align 4, !tbaa !14
  %100 = call noundef float @_ZSt4log2f(float noundef %99)
  %101 = load ptr, ptr %10, align 8, !tbaa !47
  %102 = load i32, ptr %14, align 4, !tbaa !141
  %103 = sext i32 %102 to i64
  %104 = getelementptr inbounds float, ptr %101, i64 %103
  store float %100, ptr %104, align 4, !tbaa !14
  %105 = load ptr, ptr %10, align 8, !tbaa !47
  %106 = load i32, ptr %14, align 4, !tbaa !141
  %107 = sext i32 %106 to i64
  %108 = getelementptr inbounds float, ptr %105, i64 %107
  %109 = load float, ptr %108, align 4, !tbaa !14
  %110 = getelementptr inbounds nuw %"class.OpenColorIO_v2_5dev::CameraLin2LogRenderer", ptr %15, i32 0, i32 3
  %111 = load i32, ptr %14, align 4, !tbaa !141
  %112 = sext i32 %111 to i64
  %113 = getelementptr inbounds [3 x float], ptr %110, i64 0, i64 %112
  %114 = load float, ptr %113, align 4, !tbaa !14
  %115 = getelementptr inbounds nuw %"class.OpenColorIO_v2_5dev::CameraLin2LogRenderer", ptr %15, i32 0, i32 4
  %116 = load i32, ptr %14, align 4, !tbaa !141
  %117 = sext i32 %116 to i64
  %118 = getelementptr inbounds [3 x float], ptr %115, i64 0, i64 %117
  %119 = load float, ptr %118, align 4, !tbaa !14
  %120 = call float @llvm.fmuladd.f32(float %109, float %114, float %119)
  %121 = load ptr, ptr %10, align 8, !tbaa !47
  %122 = load i32, ptr %14, align 4, !tbaa !141
  %123 = sext i32 %122 to i64
  %124 = getelementptr inbounds float, ptr %121, i64 %123
  store float %120, ptr %124, align 4, !tbaa !14
  br label %125

125:                                              ; preds = %64, %43
  br label %126

126:                                              ; preds = %125
  %127 = load i32, ptr %14, align 4, !tbaa !141
  %128 = add nsw i32 %127, 1
  store i32 %128, ptr %14, align 4, !tbaa !141
  br label %27, !llvm.loop !167

129:                                              ; preds = %30
  %130 = load float, ptr %13, align 4, !tbaa !14
  %131 = load ptr, ptr %10, align 8, !tbaa !47
  %132 = getelementptr inbounds float, ptr %131, i64 3
  store float %130, ptr %132, align 4, !tbaa !14
  %133 = load ptr, ptr %10, align 8, !tbaa !47
  %134 = getelementptr inbounds float, ptr %133, i64 4
  store ptr %134, ptr %10, align 8, !tbaa !47
  %135 = load ptr, ptr %9, align 8, !tbaa !47
  %136 = getelementptr inbounds float, ptr %135, i64 4
  store ptr %136, ptr %9, align 8, !tbaa !47
  call void @llvm.lifetime.end.p0(i64 4, ptr %13) #3
  br label %137

137:                                              ; preds = %129
  %138 = load i64, ptr %11, align 8, !tbaa !115
  %139 = add nsw i64 %138, 1
  store i64 %139, ptr %11, align 8, !tbaa !115
  br label %18, !llvm.loop !168

140:                                              ; preds = %22
  call void @llvm.lifetime.end.p0(i64 8, ptr %10) #3
  call void @llvm.lifetime.end.p0(i64 8, ptr %9) #3
  ret void
}