; Function Attrs: mustprogress nofree norecurse nosync nounwind memory(argmem: readwrite) uwtable
define hidden void @_ZNK19OpenColorIO_v2_5dev21CameraLin2LogRenderer5applyEPKvPvl(ptr noundef nonnull readonly align 8 captures(none) dereferenceable(188) %0, ptr noundef readonly captures(none) %1, ptr noundef writeonly captures(none) %2, i64 noundef %3) unnamed_addr #8 align 2 {
  %5 = icmp sgt i64 %3, 0
  br i1 %5, label %.lr.ph, label %._crit_edge

.lr.ph:                                           ; preds = %4
  %6 = getelementptr inbounds nuw i8, ptr %0, i64 176
  %7 = getelementptr inbounds nuw i8, ptr %0, i64 128
  %8 = getelementptr inbounds nuw i8, ptr %0, i64 140
  %9 = getelementptr inbounds nuw i8, ptr %0, i64 152
  %10 = getelementptr inbounds nuw i8, ptr %0, i64 164
  %11 = getelementptr inbounds nuw i8, ptr %0, i64 100
  %12 = getelementptr inbounds nuw i8, ptr %0, i64 112
  br label %13

._crit_edge:                                      ; preds = %16, %4
  ret void

13:                                               ; preds = %.lr.ph, %16
  %.04148 = phi ptr [ %1, %.lr.ph ], [ %19, %16 ]
  %.04247 = phi i64 [ 0, %.lr.ph ], [ %20, %16 ]
  %.04346 = phi ptr [ %2, %.lr.ph ], [ %18, %16 ]
  %14 = getelementptr inbounds nuw i8, ptr %.04148, i64 12
  %15 = load float, ptr %14, align 4, !tbaa !111
  br label %21

16:                                               ; preds = %48
  %17 = getelementptr inbounds nuw i8, ptr %.04346, i64 12
  store float %15, ptr %17, align 4, !tbaa !111
  %18 = getelementptr inbounds nuw i8, ptr %.04346, i64 16
  %19 = getelementptr inbounds nuw i8, ptr %.04148, i64 16
  %20 = add nuw nsw i64 %.04247, 1
  %exitcond50.not = icmp eq i64 %20, %3
  br i1 %exitcond50.not, label %._crit_edge, label %13, !llvm.loop !129

21:                                               ; preds = %13, %48
  %indvars.iv = phi i64 [ 0, %13 ], [ %indvars.iv.next, %48 ]
  %22 = getelementptr inbounds nuw float, ptr %.04148, i64 %indvars.iv
  %23 = load float, ptr %22, align 4, !tbaa !111
  %24 = getelementptr inbounds nuw [3 x float], ptr %6, i64 0, i64 %indvars.iv
  %25 = load float, ptr %24, align 4, !tbaa !111
  %26 = fcmp olt float %23, %25
  %27 = getelementptr inbounds nuw float, ptr %.04346, i64 %indvars.iv
  br i1 %26, label %28, label %34

28:                                               ; preds = %21
  %29 = getelementptr inbounds nuw [3 x float], ptr %11, i64 0, i64 %indvars.iv
  %30 = load float, ptr %29, align 4, !tbaa !111
  %31 = getelementptr inbounds nuw [3 x float], ptr %12, i64 0, i64 %indvars.iv
  %32 = load float, ptr %31, align 4, !tbaa !111
  %33 = tail call float @llvm.fmuladd.f32(float %30, float %23, float %32)
  br label %48

34:                                               ; preds = %21
  %35 = getelementptr inbounds nuw [3 x float], ptr %7, i64 0, i64 %indvars.iv
  %36 = load float, ptr %35, align 4, !tbaa !111
  %37 = getelementptr inbounds nuw [3 x float], ptr %8, i64 0, i64 %indvars.iv
  %38 = load float, ptr %37, align 4, !tbaa !111
  %39 = tail call float @llvm.fmuladd.f32(float %23, float %36, float %38)
  %40 = fcmp ogt float %39, 0x3810000000000000
  %41 = select i1 %40, float %39, float 0x3810000000000000
  %42 = tail call float @llvm.log2.f32(float %41), !tbaa !112
  store float %42, ptr %27, align 4, !tbaa !111
  %43 = getelementptr inbounds nuw [3 x float], ptr %9, i64 0, i64 %indvars.iv
  %44 = load float, ptr %43, align 4, !tbaa !111
  %45 = getelementptr inbounds nuw [3 x float], ptr %10, i64 0, i64 %indvars.iv
  %46 = load float, ptr %45, align 4, !tbaa !111
  %47 = tail call float @llvm.fmuladd.f32(float %42, float %44, float %46)
  br label %48

48:                                               ; preds = %28, %34
  %.sink = phi float [ %33, %28 ], [ %47, %34 ]
  store float %.sink, ptr %27, align 4, !tbaa !111
  %indvars.iv.next = add nuw nsw i64 %indvars.iv, 1
  %exitcond.not = icmp eq i64 %indvars.iv.next, 3
  br i1 %exitcond.not, label %16, label %21, !llvm.loop !130
}